target datalayout = "e-m:e-p270:32:32-p271:32:32-p272:64:64-i64:64-i128:128-f80:128-n8:16:32:64-S128"
target triple = "x86_64-pc-linux-gnu"

%struct.Vec_Int_t_ = type { i32, i32, ptr }

; Function Attrs: inlinehint nounwind uwtable
define internal i32 @Abc_LitNot(i32 noundef %0) #2 {
  %2 = alloca i32, align 4
  store i32 %0, ptr %2, align 4, !tbaa !10
  %3 = load i32, ptr %2, align 4, !tbaa !10
  %4 = xor i32 %3, 1
  ret i32 %4
}

; Function Attrs: inlinehint nounwind uwtable
define internal i32 @Vec_IntSize(ptr noundef %0) #2 {
  %2 = alloca ptr, align 8
  store ptr %0, ptr %2, align 8, !tbaa !24
  %3 = load ptr, ptr %2, align 8, !tbaa !24
  %4 = getelementptr inbounds nuw %struct.Vec_Int_t_, ptr %3, i32 0, i32 1
  %5 = load i32, ptr %4, align 4, !tbaa !25
  ret i32 %5
}

; Function Attrs: inlinehint nounwind uwtable
define internal i32 @Abc_Lit2Var(i32 noundef %0) #2 {
  %2 = alloca i32, align 4
  store i32 %0, ptr %2, align 4, !tbaa !10
  %3 = load i32, ptr %2, align 4, !tbaa !10
  %4 = ashr i32 %3, 1
  ret i32 %4
}

; Function Attrs: inlinehint nounwind uwtable
define internal i32 @Vec_IntEntry(ptr noundef %0, i32 noundef %1) #2 {
  %3 = alloca ptr, align 8
  %4 = alloca i32, align 4
  store ptr %0, ptr %3, align 8, !tbaa !24
  store i32 %1, ptr %4, align 4, !tbaa !10
  %5 = load ptr, ptr %3, align 8, !tbaa !24
  %6 = getelementptr inbounds nuw %struct.Vec_Int_t_, ptr %5, i32 0, i32 2
  %7 = load ptr, ptr %6, align 8, !tbaa !29
  %8 = load i32, ptr %4, align 4, !tbaa !10
  %9 = sext i32 %8 to i64
  %10 = getelementptr inbounds i32, ptr %7, i64 %9
  %11 = load i32, ptr %10, align 4, !tbaa !10
  ret i32 %11
}

; Function Attrs: nounwind uwtable
define i32 @Fxch_DivIsNotConstant1(ptr noundef %0) #0 {
  %2 = alloca i32, align 4
  %3 = alloca ptr, align 8
  %4 = alloca i32, align 4
  %5 = alloca i32, align 4
  %6 = alloca i32, align 4
  store ptr %0, ptr %3, align 8, !tbaa !24
  call void @llvm.lifetime.start.p0(i64 4, ptr %4) #9
  %7 = load ptr, ptr %3, align 8, !tbaa !24
  %8 = call i32 @Vec_IntEntry(ptr noundef %7, i32 noundef 0)
  %9 = call i32 @Abc_Lit2Var(i32 noundef %8)
  store i32 %9, ptr %4, align 4, !tbaa !10
  call void @llvm.lifetime.start.p0(i64 4, ptr %5) #9
  %10 = load ptr, ptr %3, align 8, !tbaa !24
  %11 = call i32 @Vec_IntEntry(ptr noundef %10, i32 noundef 1)
  %12 = call i32 @Abc_Lit2Var(i32 noundef %11)
  store i32 %12, ptr %5, align 4, !tbaa !10
  %13 = load ptr, ptr %3, align 8, !tbaa !24
  %14 = call i32 @Vec_IntSize(ptr noundef %13)
  %15 = icmp eq i32 %14, 2
  br i1 %15, label %16, label %22

16:                                               ; preds = %1
  %17 = load i32, ptr %4, align 4, !tbaa !10
  %18 = load i32, ptr %5, align 4, !tbaa !10
  %19 = call i32 @Abc_LitNot(i32 noundef %18)
  %20 = icmp eq i32 %17, %19
  br i1 %20, label %21, label %22

21:                                               ; preds = %16
  store i32 0, ptr %2, align 4
  store i32 1, ptr %6, align 4
  br label %23

22:                                               ; preds = %16, %1
  store i32 1, ptr %2, align 4
  store i32 1, ptr %6, align 4
  br label %23

23:                                               ; preds = %22, %21
  call void @llvm.lifetime.end.p0(i64 4, ptr %5) #9
  call void @llvm.lifetime.end.p0(i64 4, ptr %4) #9
  %24 = load i32, ptr %2, align 4
  ret i32 %24
}