; Function Attrs: mustprogress nofree norecurse nosync nounwind willreturn memory(read, inaccessiblemem: none) uwtable
define range(i32 0, 2) i32 @Fxch_DivIsNotConstant1(ptr noundef readonly captures(none) %0) local_unnamed_addr #8 {
  %2 = getelementptr i8, ptr %0, i64 8
  %.val5 = load ptr, ptr %2, align 8, !tbaa !24
  %3 = load i32, ptr %.val5, align 4, !tbaa !25
  %4 = getelementptr inbounds nuw i8, ptr %.val5, i64 4
  %5 = load i32, ptr %4, align 4, !tbaa !25
  %6 = getelementptr i8, ptr %0, i64 4
  %.val6 = load i32, ptr %6, align 4, !tbaa !17
  %7 = icmp ne i32 %.val6, 2
  %8 = xor i32 %5, %3
  %.mask = and i32 %8, -2
  %9 = icmp ne i32 %.mask, 2
  %or.cond.not = select i1 %7, i1 true, i1 %9
  %.0 = zext i1 %or.cond.not to i32
  ret i32 %.0
}